; Function Attrs: mustprogress uwtable
define hidden noundef zeroext i1 @_ZNK13proof_checker11match_proofEPK3appRPS0_S4_(ptr nocapture noundef nonnull readonly align 8 dereferenceable(156) %this, ptr nocapture noundef readonly %p, ptr nocapture noundef nonnull writeonly align 8 dereferenceable(8) %p0, ptr nocapture noundef nonnull writeonly align 8 dereferenceable(8) %p1) local_unnamed_addr #4 align 2 {
entry:
  %m_kind.i.i.i = getelementptr inbounds i8, ptr %p, i64 4
  %bf.load.i.i.i = load i32, ptr %m_kind.i.i.i, align 4
  %bf.clear.i.i.i = and i32 %bf.load.i.i.i, 65535
  %cmp.i.i = icmp eq i32 %bf.clear.i.i.i, 0
  br i1 %cmp.i.i, label %_ZNK11ast_manager8is_proofEPK4expr.exit, label %return

_ZNK11ast_manager8is_proofEPK4expr.exit:          ; preds = %entry
  %0 = load ptr, ptr %this, align 8
  %m_decl.i.i = getelementptr inbounds i8, ptr %p, i64 16
  %1 = load ptr, ptr %m_decl.i.i, align 8
  %m_range.i.i = getelementptr inbounds i8, ptr %1, i64 40
  %2 = load ptr, ptr %m_range.i.i, align 8
  %m_proof_sort.i = getelementptr inbounds i8, ptr %0, i64 848
  %3 = load ptr, ptr %m_proof_sort.i, align 8
  %cmp.i = icmp eq ptr %2, %3
  br i1 %cmp.i, label %land.lhs.true, label %return

land.lhs.true:                                    ; preds = %_ZNK11ast_manager8is_proofEPK4expr.exit
  %m_num_args.i.i = getelementptr inbounds i8, ptr %p, i64 24
  %4 = load i32, ptr %m_num_args.i.i, align 8
  %cmp.not.i.i = icmp eq i32 %4, 0
  br i1 %cmp.not.i.i, label %_ZNK11ast_manager15get_num_parentsEPK3app.exit, label %land.rhs.i.i

land.rhs.i.i:                                     ; preds = %land.lhs.true
  %sub.i.i = add i32 %4, -1
  %m_args.i.i.i = getelementptr inbounds i8, ptr %p, i64 32
  %idxprom.i.i.i = zext i32 %sub.i.i to i64
  %arrayidx.i.i.i = getelementptr inbounds [0 x ptr], ptr %m_args.i.i.i, i64 0, i64 %idxprom.i.i.i
  %5 = load ptr, ptr %arrayidx.i.i.i, align 8
  %call3.i.i = tail call noundef ptr @_ZNK4expr8get_sortEv(ptr noundef nonnull align 4 dereferenceable(16) %5)
  %6 = load ptr, ptr %m_proof_sort.i, align 8
  %cmp4.i.i = icmp ne ptr %call3.i.i, %6
  %7 = sext i1 %cmp4.i.i to i32
  br label %_ZNK11ast_manager15get_num_parentsEPK3app.exit

_ZNK11ast_manager15get_num_parentsEPK3app.exit:   ; preds = %land.lhs.true, %land.rhs.i.i
  %sub.i = phi i32 [ 0, %land.lhs.true ], [ %7, %land.rhs.i.i ]
  %cond.i = add i32 %sub.i, %4
  %cmp = icmp eq i32 %cond.i, 2
  br i1 %cmp, label %if.then, label %return

if.then:                                          ; preds = %_ZNK11ast_manager15get_num_parentsEPK3app.exit
  %m_args.i.i = getelementptr inbounds i8, ptr %p, i64 32
  %8 = load ptr, ptr %m_args.i.i, align 8
  store ptr %8, ptr %p0, align 8
  %arrayidx.i.i = getelementptr inbounds i8, ptr %p, i64 40
  %9 = load ptr, ptr %arrayidx.i.i, align 8
  store ptr %9, ptr %p1, align 8
  br label %return

return:                                           ; preds = %entry, %_ZNK11ast_manager8is_proofEPK4expr.exit, %_ZNK11ast_manager15get_num_parentsEPK3app.exit, %if.then
  %retval.0 = phi i1 [ true, %if.then ], [ false, %_ZNK11ast_manager15get_num_parentsEPK3app.exit ], [ false, %_ZNK11ast_manager8is_proofEPK4expr.exit ], [ false, %entry ]
  ret i1 %retval.0
}